target datalayout = "e-m:e-p270:32:32-p271:32:32-p272:64:64-i64:64-i128:128-f80:128-n8:16:32:64-S128"
target triple = "x86_64-pc-linux-gnu"

%struct._e_guid_t = type { i32, i16, i16, [8 x i8] }

; Function Attrs: null_pointer_is_valid sspstrong uwtable
define hidden void @ipmi_add_guid(ptr noundef %0, i32 noundef %1, ptr noundef %2, i32 noundef %3) #0 {
  %5 = alloca ptr, align 8
  %6 = alloca i32, align 4
  %7 = alloca ptr, align 8
  %8 = alloca i32, align 4
  %9 = alloca %struct._e_guid_t, align 4
  %10 = alloca i32, align 4
  store ptr %0, ptr %5, align 8
  store i32 %1, ptr %6, align 4
  store ptr %2, ptr %7, align 8
  store i32 %3, ptr %8, align 4
  call void @llvm.lifetime.start.p0(i64 16, ptr %9) #10
  call void @llvm.lifetime.start.p0(i64 4, ptr %10) #10
  %11 = load ptr, ptr %7, align 8
  %12 = load i32, ptr %8, align 4
  %13 = add i32 %12, 12
  %14 = call i32 @tvb_get_letohl(ptr noundef %11, i32 noundef %13)
  %15 = getelementptr inbounds nuw %struct._e_guid_t, ptr %9, i32 0, i32 0
  store i32 %14, ptr %15, align 4
  %16 = load ptr, ptr %7, align 8
  %17 = load i32, ptr %8, align 4
  %18 = add i32 %17, 10
  %19 = call zeroext i16 @tvb_get_letohs(ptr noundef %16, i32 noundef %18)
  %20 = getelementptr inbounds nuw %struct._e_guid_t, ptr %9, i32 0, i32 1
  store i16 %19, ptr %20, align 4
  %21 = load ptr, ptr %7, align 8
  %22 = load i32, ptr %8, align 4
  %23 = add i32 %22, 8
  %24 = call zeroext i16 @tvb_get_letohs(ptr noundef %21, i32 noundef %23)
  %25 = getelementptr inbounds nuw %struct._e_guid_t, ptr %9, i32 0, i32 2
  store i16 %24, ptr %25, align 2
  store i32 0, ptr %10, align 4
  br label %26

26:                                               ; preds = %40, %4
  %27 = load i32, ptr %10, align 4
  %28 = icmp slt i32 %27, 8
  br i1 %28, label %29, label %43

29:                                               ; preds = %26
  %30 = load ptr, ptr %7, align 8
  %31 = load i32, ptr %8, align 4
  %32 = add i32 %31, 7
  %33 = load i32, ptr %10, align 4
  %34 = sub i32 %32, %33
  %35 = call zeroext i8 @tvb_get_uint8(ptr noundef %30, i32 noundef %34)
  %36 = getelementptr inbounds nuw %struct._e_guid_t, ptr %9, i32 0, i32 3
  %37 = load i32, ptr %10, align 4
  %38 = sext i32 %37 to i64
  %39 = getelementptr [8 x i8], ptr %36, i64 0, i64 %38
  store i8 %35, ptr %39, align 1
  br label %40

40:                                               ; preds = %29
  %41 = load i32, ptr %10, align 4
  %42 = add i32 %41, 1
  store i32 %42, ptr %10, align 4
  br label %26, !llvm.loop !8

43:                                               ; preds = %26
  %44 = load ptr, ptr %5, align 8
  %45 = load i32, ptr %6, align 4
  %46 = load ptr, ptr %7, align 8
  %47 = load i32, ptr %8, align 4
  %48 = call ptr @proto_tree_add_guid(ptr noundef %44, i32 noundef %45, ptr noundef %46, i32 noundef %47, i32 noundef 16, ptr noundef %9)
  call void @llvm.lifetime.end.p0(i64 4, ptr %10) #10
  call void @llvm.lifetime.end.p0(i64 16, ptr %9) #10
  ret void
}