; Function Attrs: null_pointer_is_valid sspstrong uwtable
define hidden void @ipmi_add_guid(ptr noundef %0, i32 noundef %1, ptr noundef %2, i32 noundef %3) local_unnamed_addr #0 {
  %5 = alloca %struct._e_guid_t, align 4
  call void @llvm.lifetime.start.p0(i64 16, ptr nonnull %5) #15
  %6 = add i32 %3, 12
  %7 = tail call i32 @tvb_get_letohl(ptr noundef %2, i32 noundef %6)
  store i32 %7, ptr %5, align 4
  %8 = add i32 %3, 10
  %9 = tail call zeroext i16 @tvb_get_letohs(ptr noundef %2, i32 noundef %8)
  %10 = getelementptr inbounds nuw i8, ptr %5, i64 4
  store i16 %9, ptr %10, align 4
  %11 = add i32 %3, 8
  %12 = tail call zeroext i16 @tvb_get_letohs(ptr noundef %2, i32 noundef %11)
  %13 = getelementptr inbounds nuw i8, ptr %5, i64 6
  store i16 %12, ptr %13, align 2
  %14 = add i32 %3, 7
  %15 = getelementptr inbounds nuw i8, ptr %5, i64 8
  br label %16

16:                                               ; preds = %4, %16
  %indvars.iv = phi i64 [ 0, %4 ], [ %indvars.iv.next, %16 ]
  %17 = trunc nuw nsw i64 %indvars.iv to i32
  %18 = sub i32 %14, %17
  %19 = tail call zeroext i8 @tvb_get_uint8(ptr noundef %2, i32 noundef %18)
  %20 = getelementptr [8 x i8], ptr %15, i64 0, i64 %indvars.iv
  store i8 %19, ptr %20, align 1
  %indvars.iv.next = add nuw nsw i64 %indvars.iv, 1
  %exitcond.not = icmp eq i64 %indvars.iv.next, 8
  br i1 %exitcond.not, label %21, label %16, !llvm.loop !7

21:                                               ; preds = %16
  %22 = call ptr @proto_tree_add_guid(ptr noundef %0, i32 noundef %1, ptr noundef %2, i32 noundef %3, i32 noundef 16, ptr noundef nonnull %5)
  call void @llvm.lifetime.end.p0(i64 16, ptr nonnull %5) #15
  ret void
}